(dp1
S'OriginalConfig'
p2
ccopy_reg
_reconstructor
p3
(cWMCore.Configuration
Configuration
p4
c__builtin__
object
p5
NtRp6
(dp7
S'Site'
p8
g3
(cWMCore.Configuration
ConfigSection
p9
g5
NtRp10
(dp11
S'_internal_documentation'
p12
S''
sS'_internal_settings'
p13
c__builtin__
set
p14
((lp15
S'storageSite'
p16
atRp17
sS'_internal_name'
p18
g8
sS'_internal_docstrings'
p19
(dp20
sS'_internal_children'
p21
g14
((ltRp22
sg16
S'T3_US_FNALLPC'
p23
sS'_internal_parent_ref'
p24
NsbsS'_internal_sections'
p25
(lp26
S'General'
p27
aS'JobType'
p28
aS'Data'
p29
ag8
aS'User'
p30
aS'Debug'
p31
asg27
g3
(g9
g5
NtRp32
(dp33
S'transferLogs'
p34
I00
sg12
S''
sg13
g14
((lp35
g34
aS'transferOutputs'
p36
aS'workArea'
p37
aS'requestName'
p38
atRp39
sg18
g27
sg19
(dp40
sg36
I01
sg21
g14
((ltRp41
sg38
S'SingleMuPt2-50Fwd_GEN_SIM_ForPR13364_10k'
p42
sg24
Nsg37
S'crab_projects'
p43
sbsS'_internal_webapps'
p44
(lp45
sg30
g3
(g9
g5
NtRp46
(dp47
g12
S''
sg13
g14
((ltRp48
sg18
g30
sg19
(dp49
sg21
g14
((ltRp50
sg24
NsbsS'_internal_components'
p51
(lp52
sg31
g3
(g9
g5
NtRp53
(dp54
g12
S''
sg13
g14
((ltRp55
sg18
g31
sg19
(dp56
sg21
g14
((ltRp57
sg24
Nsbsg29
g3
(g9
g5
NtRp58
(dp59
S'outputDatasetTag'
p60
g42
sS'totalUnits'
p61
I10000
sS'unitsPerJob'
p62
I100
sg12
S''
sg13
g14
((lp63
g60
aS'publication'
p64
ag62
aS'splitting'
p65
aS'outLFNDirBase'
p66
aS'outputPrimaryDataset'
p67
ag61
atRp68
sg66
S'/store/user/dildick/'
p69
sg18
g29
sg65
S'EventBased'
p70
sg19
(dp71
sg21
g14
((ltRp72
sg67
g42
sg24
Nsg64
I01
sbsg28
g3
(g9
g5
NtRp73
(dp74
g12
S''
sg13
g14
((lp75
S'psetName'
p76
aS'pluginName'
p77
atRp78
sg18
g28
sg19
(dp79
sg77
S'PrivateMC'
p80
sg21
g14
((ltRp81
sg76
S'SingleMuPt2-50Fwd_cfi_GEN_SIM.py'
p82
sg24
NsbsbsS'voGroup'
p83
S''
sS'Server'
p84
S'cmsweb.cern.ch'
p85
sS'instance'
p86
S'prod'
p87
sS'RequestName'
p88
S'160426_172955:dildick_crab_SingleMuPt2-50Fwd_GEN_SIM_ForPR13364_10k'
p89
sS'voRole'
p90
S'NULL'
p91
sS'Port'
p92
S''
s.